; Function Attrs: mustprogress nounwind uwtable
define hidden void @_ZN14JfrJavaSupport7includeEP10JavaThreadP7oopDescP8_jobject(ptr noundef %0, ptr noundef %1, ptr noundef %2) local_unnamed_addr #0 align 2 {
  %4 = alloca ptr, align 8
  %5 = alloca %class.ThreadsListHandle, align 8
  %.not = icmp eq ptr %1, null
  br i1 %.not, label %35, label %6

6:                                                ; preds = %3
  %7 = load i32, ptr @_ZN16java_lang_Thread17_jfr_epoch_offsetE, align 4
  %8 = ptrtoint ptr %1 to i64
  %9 = sext i32 %7 to i64
  %10 = add nsw i64 %9, %8
  %11 = inttoptr i64 %10 to ptr
  %12 = load i16, ptr %11, align 2
  %13 = xor i16 %12, -32768
  store i16 %13, ptr %11, align 2
  %14 = load i8, ptr @UseCompressedClassPointers, align 1
  %15 = trunc i8 %14 to i1
  %16 = getelementptr inbounds i8, ptr %1, i64 8
  br i1 %15, label %17, label %27

17:                                               ; preds = %6
  %18 = load i32, ptr %16, align 8
  %19 = load ptr, ptr @_ZN23CompressedKlassPointers5_baseE, align 8
  %20 = load i32, ptr @_ZN23CompressedKlassPointers6_shiftE, align 4
  %21 = ptrtoint ptr %19 to i64
  %22 = zext i32 %18 to i64
  %23 = zext nneg i32 %20 to i64
  %24 = shl i64 %22, %23
  %25 = add i64 %24, %21
  %26 = inttoptr i64 %25 to ptr
  br label %_ZL17is_virtual_threadP7oopDesc.exit

27:                                               ; preds = %6
  %28 = load ptr, ptr %16, align 8
  br label %_ZL17is_virtual_threadP7oopDesc.exit

_ZL17is_virtual_threadP7oopDesc.exit:             ; preds = %17, %27
  %.0.i.i = phi ptr [ %26, %17 ], [ %28, %27 ]
  %29 = load ptr, ptr getelementptr inbounds (i8, ptr @_ZN9vmClasses8_klassesE, i64 304), align 8
  %30 = tail call noundef zeroext i1 @_ZNK5Klass14is_subclass_ofEPKS_(ptr noundef nonnull align 8 dereferenceable(196) %.0.i.i, ptr noundef %29) #13
  br i1 %30, label %31, label %35

31:                                               ; preds = %_ZL17is_virtual_threadP7oopDesc.exit
  %32 = tail call noundef ptr @_ZNK10JavaThread7vthreadEv(ptr noundef nonnull align 8 dereferenceable(1800) %0) #13
  %33 = icmp eq ptr %32, %1
  br i1 %33, label %34, label %42

34:                                               ; preds = %31
  tail call void @_ZN14JfrThreadLocal15include_vthreadEPK10JavaThread(ptr noundef nonnull %0) #13
  br label %42

35:                                               ; preds = %_ZL17is_virtual_threadP7oopDesc.exit, %3
  %36 = tail call align 8 ptr @llvm.threadlocal.address.p0(ptr align 8 @_ZN6Thread12_thr_currentE)
  %37 = load ptr, ptr %36, align 8
  call void @_ZN17ThreadsListHandleC1EP6Thread(ptr noundef nonnull align 8 dereferenceable(56) %5, ptr noundef %37) #13
  call void @llvm.lifetime.start.p0(i64 8, ptr nonnull %4)
  store ptr null, ptr %4, align 8
  %38 = call noundef zeroext i1 @_ZN17ThreadsListHandle32cv_internal_thread_to_JavaThreadEP8_jobjectPP10JavaThreadPP7oopDesc(ptr noundef nonnull align 8 dereferenceable(56) %5, ptr noundef %2, ptr noundef nonnull %4, ptr noundef null) #13
  %39 = load ptr, ptr %4, align 8
  call void @llvm.lifetime.end.p0(i64 8, ptr nonnull %4)
  %.not10 = icmp eq ptr %39, null
  br i1 %.not10, label %41, label %40

40:                                               ; preds = %35
  call void @_ZN14JfrThreadLocal18include_jvm_threadEPK6Thread(ptr noundef nonnull %39) #13
  br label %41

41:                                               ; preds = %40, %35
  call void @_ZN17ThreadsListHandleD1Ev(ptr noundef nonnull align 8 dereferenceable(56) %5) #13
  br label %42

42:                                               ; preds = %31, %34, %41
  ret void
}